; Function Attrs: mustprogress nounwind uwtable
define void @_ZN7testing8internal12AssertHelperD2Ev(ptr nocapture noundef nonnull readonly align 8 dereferenceable(8) %this) unnamed_addr #7 align 2 {
entry:
  %0 = load ptr, ptr %this, align 8
  %isnull = icmp eq ptr %0, null
  br i1 %isnull, label %delete.end, label %delete.notnull

delete.notnull:                                   ; preds = %entry
  %message.i = getelementptr inbounds i8, ptr %0, i64 24
  tail call void @_ZNSt7__cxx1112basic_stringIcSt11char_traitsIcESaIcEED1Ev(ptr noundef nonnull align 8 dereferenceable(32) %message.i) #47
  tail call void @_ZdlPv(ptr noundef nonnull %0) #51
  br label %delete.end

delete.end:                                       ; preds = %delete.notnull, %entry
  ret void
}